target datalayout = "e-m:e-p270:32:32-p271:32:32-p272:64:64-i64:64-i128:128-f80:128-n8:16:32:64-S128"
target triple = "x86_64-pc-linux-gnu"

%struct.SVG_RendererRec_ = type { %struct.FT_RendererRec_, i8, i8, %struct.SVG_RendererHooks_, ptr }
%struct.FT_RendererRec_ = type { %struct.FT_ModuleRec_, ptr, i32, %struct.FT_Glyph_Class_, ptr, ptr, ptr }
%struct.FT_ModuleRec_ = type { ptr, ptr, ptr }
%struct.FT_Glyph_Class_ = type { i64, i32, ptr, ptr, ptr, ptr, ptr, ptr }
%struct.SVG_RendererHooks_ = type { ptr, ptr, ptr, ptr }

@.str.2 = private unnamed_addr constant [10 x i8] c"svg-hooks\00", align 1

; Function Attrs: nounwind uwtable
define internal i32 @ft_svg_property_get(ptr noundef %0, ptr noundef %1, ptr noundef %2) #0 {
  %4 = alloca ptr, align 8
  %5 = alloca ptr, align 8
  %6 = alloca ptr, align 8
  %7 = alloca i32, align 4
  %8 = alloca ptr, align 8
  %9 = alloca ptr, align 8
  store ptr %0, ptr %4, align 8, !tbaa !3
  store ptr %1, ptr %5, align 8, !tbaa !26
  store ptr %2, ptr %6, align 8, !tbaa !28
  call void @llvm.lifetime.start.p0(i64 4, ptr %7) #6
  store i32 0, ptr %7, align 4, !tbaa !10
  call void @llvm.lifetime.start.p0(i64 8, ptr %8) #6
  %10 = load ptr, ptr %4, align 8, !tbaa !3
  store ptr %10, ptr %8, align 8, !tbaa !8
  %11 = load ptr, ptr %5, align 8, !tbaa !26
  %12 = call i32 @strcmp(ptr noundef %11, ptr noundef @.str.2) #7
  %13 = icmp ne i32 %12, 0
  br i1 %13, label %19, label %14

14:                                               ; preds = %3
  call void @llvm.lifetime.start.p0(i64 8, ptr %9) #6
  %15 = load ptr, ptr %6, align 8, !tbaa !28
  store ptr %15, ptr %9, align 8, !tbaa !83
  %16 = load ptr, ptr %9, align 8, !tbaa !83
  %17 = load ptr, ptr %8, align 8, !tbaa !8
  %18 = getelementptr inbounds nuw %struct.SVG_RendererRec_, ptr %17, i32 0, i32 3
  call void @llvm.memcpy.p0.p0.i64(ptr align 8 %16, ptr align 8 %18, i64 32, i1 false), !tbaa.struct !42
  call void @llvm.lifetime.end.p0(i64 8, ptr %9) #6
  br label %20

19:                                               ; preds = %3
  store i32 12, ptr %7, align 4, !tbaa !10
  br label %20

20:                                               ; preds = %19, %14
  %21 = load i32, ptr %7, align 4, !tbaa !10
  call void @llvm.lifetime.end.p0(i64 8, ptr %8) #6
  call void @llvm.lifetime.end.p0(i64 4, ptr %7) #6
  ret i32 %21
}